; ModuleID = '60/671.c'
source_filename = "60/671.c"
target datalayout = "e-m:e-p270:32:32-p271:32:32-p272:64:64-i64:64-f80:128-n8:16:32:64-S128"
target triple = "x86_64-pc-linux-gnu"

@.str = private unnamed_addr constant [3 x i8] c"%d\00", align 1
@.str.1 = private unnamed_addr constant [5 x i8] c"3 5\0A\00", align 1
@.str.2 = private unnamed_addr constant [7 x i8] c"%d %d\0A\00", align 1
@.str.3 = private unnamed_addr constant [6 x i8] c"empty\00", align 1

; Function Attrs: noinline nounwind uwtable
define dso_local i32 @main() #0 {
  %1 = alloca i32, align 4
  %2 = alloca i32, align 4
  %3 = alloca i32, align 4
  %4 = alloca i32, align 4
  %5 = alloca i32, align 4
  %6 = alloca i32, align 4
  %7 = alloca i32, align 4
  %8 = alloca i32, align 4
  store i32 0, i32* %1, align 4
  store i32 0, i32* %8, align 4
  %9 = call i32 (i8*, ...) @__isoc99_scanf(i8* getelementptr inbounds ([3 x i8], [3 x i8]* @.str, i64 0, i64 0), i32* %2)
  %10 = load i32, i32* %2, align 4
  %11 = icmp sgt i32 %10, 4
  br i1 %11, label %12, label %16

12:                                               ; preds = %0
  %13 = load i32, i32* %8, align 4
  %14 = add nsw i32 %13, 1
  store i32 %14, i32* %8, align 4
  %15 = call i32 (i8*, ...) @printf(i8* getelementptr inbounds ([5 x i8], [5 x i8]* @.str.1, i64 0, i64 0))
  br label %16

16:                                               ; preds = %12, %0
  store i32 2, i32* %3, align 4
  br label %17

17:                                               ; preds = %77, %16
  %18 = load i32, i32* %3, align 4
  %19 = load i32, i32* %2, align 4
  %20 = sub nsw i32 %19, 2
  %21 = icmp sle i32 %18, %20
  br i1 %21, label %22, label %80

22:                                               ; preds = %17
  %23 = load i32, i32* %3, align 4
  %24 = sdiv i32 %23, 2
  store i32 %24, i32* %4, align 4
  store i32 2, i32* %5, align 4
  store i32 0, i32* %7, align 4
  br label %25

25:                                               ; preds = %38, %22
  %26 = load i32, i32* %5, align 4
  %27 = load i32, i32* %4, align 4
  %28 = icmp sle i32 %26, %27
  br i1 %28, label %29, label %41

29:                                               ; preds = %25
  %30 = load i32, i32* %3, align 4
  %31 = load i32, i32* %5, align 4
  %32 = srem i32 %30, %31
  store i32 %32, i32* %6, align 4
  %33 = load i32, i32* %6, align 4
  %34 = icmp eq i32 %33, 0
  br i1 %34, label %35, label %38

35:                                               ; preds = %29
  %36 = load i32, i32* %7, align 4
  %37 = add nsw i32 %36, 1
  store i32 %37, i32* %7, align 4
  br label %38

38:                                               ; preds = %35, %29
  %39 = load i32, i32* %5, align 4
  %40 = add nsw i32 %39, 1
  store i32 %40, i32* %5, align 4
  br label %25

41:                                               ; preds = %25
  %42 = load i32, i32* %7, align 4
  %43 = icmp eq i32 %42, 0
  br i1 %43, label %44, label %76

44:                                               ; preds = %41
  %45 = load i32, i32* %3, align 4
  %46 = add nsw i32 %45, 2
  store i32 %46, i32* %3, align 4
  %47 = load i32, i32* %3, align 4
  %48 = sdiv i32 %47, 2
  store i32 %48, i32* %4, align 4
  store i32 2, i32* %5, align 4
  store i32 0, i32* %7, align 4
  br label %49

49:                                               ; preds = %62, %44
  %50 = load i32, i32* %5, align 4
  %51 = load i32, i32* %4, align 4
  %52 = icmp sle i32 %50, %51
  br i1 %52, label %53, label %65

53:                                               ; preds = %49
  %54 = load i32, i32* %3, align 4
  %55 = load i32, i32* %5, align 4
  %56 = srem i32 %54, %55
  store i32 %56, i32* %6, align 4
  %57 = load i32, i32* %6, align 4
  %58 = icmp eq i32 %57, 0
  br i1 %58, label %59, label %62

59:                                               ; preds = %53
  %60 = load i32, i32* %7, align 4
  %61 = add nsw i32 %60, 1
  store i32 %61, i32* %7, align 4
  br label %62

62:                                               ; preds = %59, %53
  %63 = load i32, i32* %5, align 4
  %64 = add nsw i32 %63, 1
  store i32 %64, i32* %5, align 4
  br label %49

65:                                               ; preds = %49
  %66 = load i32, i32* %7, align 4
  %67 = icmp eq i32 %66, 0
  br i1 %67, label %68, label %75

68:                                               ; preds = %65
  %69 = load i32, i32* %8, align 4
  %70 = add nsw i32 %69, 1
  store i32 %70, i32* %8, align 4
  %71 = load i32, i32* %3, align 4
  %72 = sub nsw i32 %71, 2
  %73 = load i32, i32* %3, align 4
  %74 = call i32 (i8*, ...) @printf(i8* getelementptr inbounds ([7 x i8], [7 x i8]* @.str.2, i64 0, i64 0), i32 %72, i32 %73)
  br label %75

75:                                               ; preds = %68, %65
  br label %76

76:                                               ; preds = %75, %41
  br label %77

77:                                               ; preds = %76
  %78 = load i32, i32* %3, align 4
  %79 = add nsw i32 %78, 1
  store i32 %79, i32* %3, align 4
  br label %17

80:                                               ; preds = %17
  %81 = load i32, i32* %8, align 4
  %82 = icmp eq i32 %81, 0
  br i1 %82, label %83, label %85

83:                                               ; preds = %80
  %84 = call i32 (i8*, ...) @printf(i8* getelementptr inbounds ([6 x i8], [6 x i8]* @.str.3, i64 0, i64 0))
  br label %85

85:                                               ; preds = %83, %80
  %86 = call i32 @getchar()
  %87 = call i32 @getchar()
  %88 = call i32 @getchar()
  %89 = call i32 @getchar()
  %90 = call i32 @getchar()
  %91 = call i32 @getchar()
  %92 = call i32 @getchar()
  %93 = call i32 @getchar()
  %94 = load i32, i32* %1, align 4
  ret i32 %94
}

declare dso_local i32 @__isoc99_scanf(i8*, ...) #1

declare dso_local i32 @printf(i8*, ...) #1

declare dso_local i32 @getchar() #1


!llvm.module.flags = !{!0}
!llvm.ident = !{!1}

!0 = !{i32 1, !"wchar_size", i32 4}
!1 = !{!"clang version 10.0.0-4ubuntu1 "}
